; ModuleID = 'bench/abseil-cpp/original/test_helpers.ll'
source_filename = "bench/abseil-cpp/original/test_helpers.ll"
target datalayout = "e-m:e-p270:32:32-p271:32:32-p272:64:64-i64:64-i128:128-f80:128-n8:16:32:64-S128"
target triple = "x86_64-pc-linux-gnu"

%"class.std::ios_base::Init" = type { i8 }
%"class.testing::KilledBySignal" = type { i32 }
%"class.testing::ExitedWithCode" = type { i32 }

$_ZN7testing11EnvironmentD2Ev = comdat any

$_ZN4absl12log_internal18LogTestEnvironmentD0Ev = comdat any

$_ZN7testing11Environment8TearDownEv = comdat any

$_ZN7testing11Environment5SetupEv = comdat any

$_ZTIN7testing11EnvironmentE = comdat any

$_ZTSN7testing11EnvironmentE = comdat any

@_ZStL8__ioinit = internal global %"class.std::ios_base::Init" zeroinitializer, align 1
@__dso_handle = external hidden global i8
@_ZTVN4absl12log_internal18LogTestEnvironmentE = dso_local unnamed_addr constant { [7 x ptr] } { [7 x ptr] [ptr null, ptr @_ZTIN4absl12log_internal18LogTestEnvironmentE, ptr @_ZN7testing11EnvironmentD2Ev, ptr @_ZN4absl12log_internal18LogTestEnvironmentD0Ev, ptr @_ZN4absl12log_internal18LogTestEnvironment5SetUpEv, ptr @_ZN7testing11Environment8TearDownEv, ptr @_ZN7testing11Environment5SetupEv] }, align 8
@_ZTIN4absl12log_internal18LogTestEnvironmentE = dso_local constant { ptr, ptr, ptr } { ptr getelementptr inbounds (ptr, ptr @_ZTVN10__cxxabiv120__si_class_type_infoE, i64 2), ptr @_ZTSN4absl12log_internal18LogTestEnvironmentE, ptr @_ZTIN7testing11EnvironmentE }, align 8
@_ZTVN10__cxxabiv120__si_class_type_infoE = external global [0 x ptr]
@_ZTSN4absl12log_internal18LogTestEnvironmentE = dso_local constant [42 x i8] c"N4absl12log_internal18LogTestEnvironmentE\00", align 1
@_ZTIN7testing11EnvironmentE = linkonce_odr dso_local constant { ptr, ptr } { ptr getelementptr inbounds (ptr, ptr @_ZTVN10__cxxabiv117__class_type_infoE, i64 2), ptr @_ZTSN7testing11EnvironmentE }, comdat, align 8
@_ZTVN10__cxxabiv117__class_type_infoE = external global [0 x ptr]
@_ZTSN7testing11EnvironmentE = linkonce_odr dso_local constant [24 x i8] c"N7testing11EnvironmentE\00", comdat, align 1
@llvm.global_ctors = appending global [1 x { i32, ptr, ptr }] [{ i32, ptr, ptr } { i32 65535, ptr @_GLOBAL__sub_I_test_helpers.cc, ptr null }]

declare void @_ZNSt8ios_base4InitC1Ev(ptr noundef nonnull align 1 dereferenceable(1)) unnamed_addr #0

; Function Attrs: nounwind
declare void @_ZNSt8ios_base4InitD1Ev(ptr noundef nonnull align 1 dereferenceable(1)) unnamed_addr #1

; Function Attrs: nofree nounwind
declare i32 @__cxa_atexit(ptr, ptr, ptr) local_unnamed_addr #2

; Function Attrs: mustprogress uwtable
define dso_local noundef zeroext i1 @_ZN4absl12log_internal16LoggingEnabledAtENS_11LogSeverityE(i32 noundef %0) local_unnamed_addr #3 {
  %2 = icmp sgt i32 %0, -1
  br i1 %2, label %3, label %6

3:                                                ; preds = %1
  %4 = tail call noundef i32 @_ZN4absl11MinLogLevelEv()
  %5 = icmp sge i32 %0, %4
  br label %6

6:                                                ; preds = %3, %1
  %7 = phi i1 [ false, %1 ], [ %5, %3 ]
  ret i1 %7
}

declare noundef i32 @_ZN4absl11MinLogLevelEv() local_unnamed_addr #0

; Function Attrs: mustprogress uwtable
define dso_local noundef zeroext i1 @_ZN4absl12log_internal11DiedOfFatalEi(i32 noundef %0) local_unnamed_addr #3 {
  %2 = alloca %"class.testing::KilledBySignal", align 4
  call void @llvm.lifetime.start.p0(i64 4, ptr nonnull %2) #8
  call void @_ZN7testing14KilledBySignalC1Ei(ptr noundef nonnull align 4 dereferenceable(4) %2, i32 noundef 6)
  %3 = call noundef zeroext i1 @_ZNK7testing14KilledBySignalclEi(ptr noundef nonnull align 4 dereferenceable(4) %2, i32 noundef %0)
  call void @llvm.lifetime.end.p0(i64 4, ptr nonnull %2) #8
  ret i1 %3
}

; Function Attrs: mustprogress nocallback nofree nosync nounwind willreturn memory(argmem: readwrite)
declare void @llvm.lifetime.start.p0(i64 immarg, ptr captures(none)) #4

declare void @_ZN7testing14KilledBySignalC1Ei(ptr noundef nonnull align 4 dereferenceable(4), i32 noundef) unnamed_addr #0

declare noundef zeroext i1 @_ZNK7testing14KilledBySignalclEi(ptr noundef nonnull align 4 dereferenceable(4), i32 noundef) local_unnamed_addr #0

; Function Attrs: mustprogress nocallback nofree nosync nounwind willreturn memory(argmem: readwrite)
declare void @llvm.lifetime.end.p0(i64 immarg, ptr captures(none)) #4

; Function Attrs: mustprogress uwtable
define dso_local noundef zeroext i1 @_ZN4absl12log_internal12DiedOfQFatalEi(i32 noundef %0) local_unnamed_addr #3 {
  %2 = alloca %"class.testing::ExitedWithCode", align 4
  call void @llvm.lifetime.start.p0(i64 4, ptr nonnull %2) #8
  call void @_ZN7testing14ExitedWithCodeC1Ei(ptr noundef nonnull align 4 dereferenceable(4) %2, i32 noundef 1)
  %3 = call noundef zeroext i1 @_ZNK7testing14ExitedWithCodeclEi(ptr noundef nonnull align 4 dereferenceable(4) %2, i32 noundef %0)
  call void @llvm.lifetime.end.p0(i64 4, ptr nonnull %2) #8
  ret i1 %3
}

declare void @_ZN7testing14ExitedWithCodeC1Ei(ptr noundef nonnull align 4 dereferenceable(4), i32 noundef) unnamed_addr #0

declare noundef zeroext i1 @_ZNK7testing14ExitedWithCodeclEi(ptr noundef nonnull align 4 dereferenceable(4), i32 noundef) local_unnamed_addr #0

; Function Attrs: mustprogress uwtable
define dso_local void @_ZN4absl12log_internal18LogTestEnvironment5SetUpEv(ptr nonnull readnone align 8 captures(none) %0) unnamed_addr #3 align 2 {
  %2 = tail call noundef zeroext i1 @_ZN4absl12log_internal13IsInitializedEv()
  br i1 %2, label %4, label %3

3:                                                ; preds = %1
  tail call void @_ZN4absl13InitializeLogEv()
  br label %4

4:                                                ; preds = %3, %1
  ret void
}

declare noundef zeroext i1 @_ZN4absl12log_internal13IsInitializedEv() local_unnamed_addr #0

declare void @_ZN4absl13InitializeLogEv() local_unnamed_addr #0

; Function Attrs: mustprogress nounwind uwtable
define linkonce_odr dso_local void @_ZN7testing11EnvironmentD2Ev(ptr noundef nonnull align 8 dereferenceable(8) %0) unnamed_addr #5 comdat align 2 {
  ret void
}

; Function Attrs: mustprogress nounwind uwtable
define linkonce_odr dso_local void @_ZN4absl12log_internal18LogTestEnvironmentD0Ev(ptr noundef nonnull align 8 dereferenceable(8) %0) unnamed_addr #5 comdat align 2 {
  tail call void @_ZdlPvm(ptr noundef nonnull %0, i64 noundef 8) #9
  ret void
}

; Function Attrs: mustprogress nounwind uwtable
define linkonce_odr dso_local void @_ZN7testing11Environment8TearDownEv(ptr noundef nonnull align 8 dereferenceable(8) %0) unnamed_addr #5 comdat align 2 {
  ret void
}

; Function Attrs: mustprogress nounwind uwtable
define linkonce_odr dso_local noundef ptr @_ZN7testing11Environment5SetupEv(ptr noundef nonnull align 8 dereferenceable(8) %0) unnamed_addr #5 comdat align 2 {
  ret ptr null
}

; Function Attrs: nobuiltin nounwind
declare void @_ZdlPvm(ptr noundef, i64 noundef) local_unnamed_addr #6

; Function Attrs: uwtable
define internal void @_GLOBAL__sub_I_test_helpers.cc() #7 section ".text.startup" {
  tail call void @_ZNSt8ios_base4InitC1Ev(ptr noundef nonnull align 1 dereferenceable(1) @_ZStL8__ioinit)
  %1 = tail call i32 @__cxa_atexit(ptr nonnull @_ZNSt8ios_base4InitD1Ev, ptr nonnull @_ZStL8__ioinit, ptr nonnull @__dso_handle) #8
  ret void
}


!llvm.module.flags = !{!0, !1, !2, !3}

!0 = !{i32 1, !"wchar_size", i32 4}
!1 = !{i32 8, !"PIC Level", i32 2}
!2 = !{i32 7, !"PIE Level", i32 2}
!3 = !{i32 7, !"uwtable", i32 2}
